target datalayout = "e-m:e-p270:32:32-p271:32:32-p272:64:64-i64:64-i128:128-f80:128-n8:16:32:64-S128"
target triple = "x86_64-pc-linux-gnu"

%struct._object = type { %union.anon, ptr }
%union.anon = type { i64 }
%struct.xx_state = type { ptr, ptr }
%struct.XxoObject = type { %struct._object, ptr, [10 x i8], i64 }

; Function Attrs: nounwind uwtable
define internal ptr @newXxoObject(ptr noundef %0) #0 {
  %2 = alloca ptr, align 8
  %3 = alloca ptr, align 8
  %4 = alloca ptr, align 8
  %5 = alloca i32, align 4
  %6 = alloca ptr, align 8
  store ptr %0, ptr %3, align 8, !tbaa !3
  call void @llvm.lifetime.start.p0(i64 8, ptr %4) #6
  %7 = load ptr, ptr %3, align 8, !tbaa !3
  %8 = call ptr @PyModule_GetState(ptr noundef %7)
  store ptr %8, ptr %4, align 8, !tbaa !8
  %9 = load ptr, ptr %4, align 8, !tbaa !8
  %10 = icmp eq ptr %9, null
  br i1 %10, label %11, label %12

11:                                               ; preds = %1
  store ptr null, ptr %2, align 8
  store i32 1, ptr %5, align 4
  br label %30

12:                                               ; preds = %1
  call void @llvm.lifetime.start.p0(i64 8, ptr %6) #6
  %13 = load ptr, ptr %4, align 8, !tbaa !8
  %14 = getelementptr inbounds nuw %struct.xx_state, ptr %13, i32 0, i32 0
  %15 = load ptr, ptr %14, align 8, !tbaa !9
  %16 = call ptr @_PyObject_GC_New(ptr noundef %15)
  store ptr %16, ptr %6, align 8, !tbaa !8
  %17 = load ptr, ptr %6, align 8, !tbaa !8
  %18 = icmp eq ptr %17, null
  br i1 %18, label %19, label %20

19:                                               ; preds = %12
  store ptr null, ptr %2, align 8
  store i32 1, ptr %5, align 4
  br label %29

20:                                               ; preds = %12
  %21 = load ptr, ptr %6, align 8, !tbaa !8
  %22 = getelementptr inbounds nuw %struct.XxoObject, ptr %21, i32 0, i32 1
  store ptr null, ptr %22, align 8, !tbaa !18
  %23 = load ptr, ptr %6, align 8, !tbaa !8
  %24 = getelementptr inbounds nuw %struct.XxoObject, ptr %23, i32 0, i32 2
  %25 = getelementptr inbounds [10 x i8], ptr %24, i64 0, i64 0
  call void @llvm.memset.p0.i64(ptr align 8 %25, i8 0, i64 10, i1 false)
  %26 = load ptr, ptr %6, align 8, !tbaa !8
  %27 = getelementptr inbounds nuw %struct.XxoObject, ptr %26, i32 0, i32 3
  store i64 0, ptr %27, align 8, !tbaa !22
  %28 = load ptr, ptr %6, align 8, !tbaa !8
  store ptr %28, ptr %2, align 8
  store i32 1, ptr %5, align 4
  br label %29

29:                                               ; preds = %20, %19
  call void @llvm.lifetime.end.p0(i64 8, ptr %6) #6
  br label %30

30:                                               ; preds = %29, %11
  call void @llvm.lifetime.end.p0(i64 8, ptr %4) #6
  %31 = load ptr, ptr %2, align 8
  ret ptr %31
}

; Function Attrs: nounwind uwtable
define internal ptr @xx_new(ptr noundef %0, ptr noundef %1) #0 {
  %3 = alloca ptr, align 8
  %4 = alloca ptr, align 8
  %5 = alloca ptr, align 8
  %6 = alloca ptr, align 8
  %7 = alloca i32, align 4
  store ptr %0, ptr %4, align 8, !tbaa !3
  store ptr %1, ptr %5, align 8, !tbaa !3
  call void @llvm.lifetime.start.p0(i64 8, ptr %6) #6
  %8 = load ptr, ptr %4, align 8, !tbaa !3
  %9 = call ptr @newXxoObject(ptr noundef %8)
  store ptr %9, ptr %6, align 8, !tbaa !8
  %10 = load ptr, ptr %6, align 8, !tbaa !8
  %11 = icmp eq ptr %10, null
  br i1 %11, label %12, label %13

12:                                               ; preds = %2
  store ptr null, ptr %3, align 8
  store i32 1, ptr %7, align 4
  br label %15

13:                                               ; preds = %2
  %14 = load ptr, ptr %6, align 8, !tbaa !8
  store ptr %14, ptr %3, align 8
  store i32 1, ptr %7, align 4
  br label %15

15:                                               ; preds = %13, %12
  call void @llvm.lifetime.end.p0(i64 8, ptr %6) #6
  %16 = load ptr, ptr %3, align 8
  ret ptr %16
}