; Function Attrs: nounwind uwtable
define internal ptr @xx_new(ptr noundef %0, ptr readnone captures(none) %1) #0 {
  %3 = tail call ptr @PyModule_GetState(ptr noundef %0) #5
  %4 = icmp eq ptr %3, null
  br i1 %4, label %newXxoObject.exit, label %5

5:                                                ; preds = %2
  %6 = load ptr, ptr %3, align 8, !tbaa !3
  %7 = tail call ptr @_PyObject_GC_New(ptr noundef %6) #5
  %8 = icmp eq ptr %7, null
  br i1 %8, label %newXxoObject.exit, label %9

9:                                                ; preds = %5
  %10 = getelementptr inbounds nuw i8, ptr %7, i64 16
  %11 = getelementptr inbounds nuw i8, ptr %7, i64 40
  store i64 0, ptr %11, align 8, !tbaa !13
  tail call void @llvm.memset.p0.i64(ptr noundef nonnull align 8 dereferenceable(18) %10, i8 0, i64 18, i1 false)
  br label %newXxoObject.exit

newXxoObject.exit:                                ; preds = %2, %5, %9
  %.0.i = phi ptr [ null, %2 ], [ %7, %9 ], [ null, %5 ]
  ret ptr %.0.i
}